; Function Attrs: nounwind uwtable
define hidden void @opj_mutex_destroy(ptr noundef %0) local_unnamed_addr #1 {
  %.not = icmp eq ptr %0, null
  br i1 %.not, label %4, label %2

2:                                                ; preds = %1
  %3 = tail call i32 @pthread_mutex_destroy(ptr noundef nonnull %0) #8
  tail call void @opj_free(ptr noundef nonnull %0) #8
  br label %4

4:                                                ; preds = %1, %2
  ret void
}